Archive member included to satisfy reference by file (symbol)

/usr/lib/gcc/arm-none-eabi/7.3.1/thumb/libgcc.a(_thumb1_case_uqi.o)
                              build/src/core.o (__gnu_thumb1_case_uqi)

Allocating common symbols
Common symbol       size              file

crc32_table         0x400             build/src/crc32.o

Memory Configuration

Name             Origin             Length             Attributes
*default*        0x0000000000000000 0xffffffffffffffff

Linker script and memory map

LOAD build/baremetal/test.o
LOAD build/src/core.o
LOAD build/src/crc32.o
LOAD build/src/loader.o
LOAD build/src/startup.o
LOAD build/src/uart.o
LOAD /usr/lib/gcc/arm-none-eabi/7.3.1/thumb/libgcc.a
START GROUP
LOAD /usr/lib/gcc/arm-none-eabi/7.3.1/thumb/libgcc.a
LOAD /usr/lib/gcc/arm-none-eabi/7.3.1/../../../arm-none-eabi/lib/thumb/libc.a
END GROUP
                0x0000000000000000                . = 0x0
                0x0000000000000000                . = ALIGN (0x4)

.startup        0x0000000000000000        0x0
 */core/startup.*(.text .rodata .data)
                0x0000000001f00000                . = (. + 0x1f00000)
                0x0000000001f00000                . = ALIGN (0x4)

.text           0x0000000001f00000      0x258 load address 0x0000000000000000
 */core/loader.*(.text .rodata .data)
 */core/uart.*(.text .rodata .data)
 *(.text)
 .text          0x0000000001f00000        0x2 build/baremetal/test.o
                0x0000000001f00000                dummy
 .text          0x0000000001f00002       0x14 build/src/core.o
                0x0000000001f00002                core_run
                0x0000000001f00008                core_run_kernel
 *fill*         0x0000000001f00016        0x2 
 .text          0x0000000001f00018       0x80 build/src/crc32.o
                0x0000000001f00018                reflect
                0x0000000001f00036                init_crc32_table
                0x0000000001f0007c                crc32
 .text          0x0000000001f00098       0xa8 build/src/loader.o
                0x0000000001f00098                loader_set_baudrate
                0x0000000001f000cc                loader
 .text          0x0000000001f00140       0x24 build/src/startup.o
                0x0000000001f00140                _start
 .text          0x0000000001f00164       0xe0 build/src/uart.o
                0x0000000001f00164                find_baudinfo
                0x0000000001f00180                init_uart
                0x0000000001f001c4                getc
                0x0000000001f001dc                putc
                0x0000000001f001f4                get_u16
                0x0000000001f0020a                put_u16
                0x0000000001f0021e                get_u32
                0x0000000001f00230                put_u32
 .text          0x0000000001f00244       0x14 /usr/lib/gcc/arm-none-eabi/7.3.1/thumb/libgcc.a(_thumb1_case_uqi.o)
                0x0000000001f00244                __gnu_thumb1_case_uqi

.text.startup   0x0000000001f00258      0x110 load address 0x0000000000000258
 .text.startup  0x0000000001f00258      0x110 build/src/core.o
                0x0000000001f00258                main

.iplt           0x0000000001f00368        0x0 load address 0x0000000000000368
 .iplt          0x0000000001f00368        0x0 build/src/core.o

.rel.dyn        0x0000000001f00368        0x0 load address 0x0000000000000368
 .rel.iplt      0x0000000001f00368        0x0 build/src/core.o
                0x0000000001f00368                . = ALIGN (0x4)

.rodata
 *(.rodata)
                0x0000000001f00368                . = ALIGN (0x4)

.data           0x0000000001f00368       0x50 load address 0x0000000000000368
 *(.data)
 .data          0x0000000001f00368        0x0 build/baremetal/test.o
 .data          0x0000000001f00368        0x0 build/src/core.o
 .data          0x0000000001f00368        0x0 build/src/crc32.o
 .data          0x0000000001f00368        0x0 build/src/loader.o
 .data          0x0000000001f00368        0x0 build/src/startup.o
 .data          0x0000000001f00368       0x50 build/src/uart.o
                0x0000000001f00368                baudinfo
 .data          0x0000000001f003b8        0x0 /usr/lib/gcc/arm-none-eabi/7.3.1/thumb/libgcc.a(_thumb1_case_uqi.o)

.igot.plt       0x0000000001f003b8        0x0 load address 0x00000000000003b8
 .igot.plt      0x0000000001f003b8        0x0 build/src/core.o
                0x0000000001fe4000                . = 0x1fe4000
                0x0000000001fe4000                . = ALIGN (0x4)
                0x0000000001fe4000                __bss_start__ = .

.bss            0x0000000001fe4000      0x400 load address 0x00000000000e4000
 *(.bss)
 .bss           0x0000000001fe4000        0x0 build/baremetal/test.o
 .bss           0x0000000001fe4000        0x0 build/src/core.o
 .bss           0x0000000001fe4000        0x0 build/src/crc32.o
 .bss           0x0000000001fe4000        0x0 build/src/loader.o
 .bss           0x0000000001fe4000        0x0 build/src/startup.o
 .bss           0x0000000001fe4000        0x0 build/src/uart.o
 .bss           0x0000000001fe4000        0x0 /usr/lib/gcc/arm-none-eabi/7.3.1/thumb/libgcc.a(_thumb1_case_uqi.o)
 COMMON         0x0000000001fe4000      0x400 build/src/crc32.o
                0x0000000001fe4000                crc32_table
                0x0000000001fe4400                __bss_end__ = .
                0x0000000001ff0000                . = 0x1ff0000
                0x0000000001ff0000                . = ALIGN (0x4)
                0x0000000001ff0000                __stack_end__ = .
                0x0000000002000000                . = 0x2000000
                0x0000000002000000                . = ALIGN (0x4)
                0x0000000002000000                __stack_start__ = .

/DISCARD/
 *(.glue_7 .glue_7t .vfp11_veneer .v4_bx)
OUTPUT(build/micromon.elf elf32-littlearm)

.comment        0x0000000000000000       0x57
 .comment       0x0000000000000000       0x57 build/baremetal/test.o
                                         0x58 (size before relaxing)
 .comment       0x0000000000000057       0x58 build/src/core.o
 .comment       0x0000000000000057       0x58 build/src/crc32.o
 .comment       0x0000000000000057       0x58 build/src/loader.o
 .comment       0x0000000000000057       0x58 build/src/uart.o

.ARM.attributes
                0x0000000000000000       0x29
 .ARM.attributes
                0x0000000000000000       0x2b build/baremetal/test.o
 .ARM.attributes
                0x000000000000002b       0x2b build/src/core.o
 .ARM.attributes
                0x0000000000000056       0x2b build/src/crc32.o
 .ARM.attributes
                0x0000000000000081       0x2b build/src/loader.o
 .ARM.attributes
                0x00000000000000ac       0x1b build/src/startup.o
 .ARM.attributes
                0x00000000000000c7       0x2b build/src/uart.o
 .ARM.attributes
                0x00000000000000f2       0x16 /usr/lib/gcc/arm-none-eabi/7.3.1/thumb/libgcc.a(_thumb1_case_uqi.o)

.debug_line     0x0000000000000000       0x62
 .debug_line    0x0000000000000000       0x62 /usr/lib/gcc/arm-none-eabi/7.3.1/thumb/libgcc.a(_thumb1_case_uqi.o)

.debug_info     0x0000000000000000       0x26
 .debug_info    0x0000000000000000       0x26 /usr/lib/gcc/arm-none-eabi/7.3.1/thumb/libgcc.a(_thumb1_case_uqi.o)

.debug_abbrev   0x0000000000000000       0x14
 .debug_abbrev  0x0000000000000000       0x14 /usr/lib/gcc/arm-none-eabi/7.3.1/thumb/libgcc.a(_thumb1_case_uqi.o)

.debug_aranges  0x0000000000000000       0x20
 .debug_aranges
                0x0000000000000000       0x20 /usr/lib/gcc/arm-none-eabi/7.3.1/thumb/libgcc.a(_thumb1_case_uqi.o)

.debug_str      0x0000000000000000       0x6f
 .debug_str     0x0000000000000000       0x6f /usr/lib/gcc/arm-none-eabi/7.3.1/thumb/libgcc.a(_thumb1_case_uqi.o)
